target datalayout = "e-m:e-p270:32:32-p271:32:32-p272:64:64-i64:64-i128:128-f80:128-n8:16:32:64-S128"
target triple = "x86_64-pc-linux-gnu"

%"class.tbb::detail::r1::basic_tls" = type { i32 }
%"class.tbb::detail::r1::thread_data" = type { %"struct.tbb::detail::d1::intrusive_list_node", i16, i8, i8, ptr, ptr, ptr, ptr, %"class.tbb::detail::r1::mail_inbox", %"class.tbb::detail::r1::FastRandom", ptr, ptr, ptr, i32, ptr, %"class.tbb::detail::d1::task_group_context" }
%"struct.tbb::detail::d1::intrusive_list_node" = type { ptr, ptr }
%"class.tbb::detail::r1::mail_inbox" = type { ptr }
%"class.tbb::detail::r1::FastRandom" = type { i32, i32 }
%"class.tbb::detail::d1::task_group_context" = type { i64, %"struct.std::atomic.4", i8, %"struct.tbb::detail::d1::task_group_context::context_traits", %"struct.std::atomic.6", %"struct.std::atomic.8", %union.anon, ptr, %"struct.tbb::detail::d1::intrusive_list_node", %"struct.std::atomic.9", ptr, i64, [56 x i8] }
%"struct.std::atomic.4" = type { %"struct.std::__atomic_base.5" }
%"struct.std::__atomic_base.5" = type { i32 }
%"struct.tbb::detail::d1::task_group_context::context_traits" = type { i8 }
%"struct.std::atomic.6" = type { %"struct.std::__atomic_base.7" }
%"struct.std::__atomic_base.7" = type { i8 }
%"struct.std::atomic.8" = type { i8 }
%union.anon = type { ptr }
%"struct.std::atomic.9" = type { %"struct.std::__atomic_base.10" }
%"struct.std::__atomic_base.10" = type { ptr }
%"class.tbb::detail::r1::task_dispatcher" = type { ptr, %"struct.tbb::detail::r1::execution_data_ext", %"struct.tbb::detail::r1::task_dispatcher::properties", i64, ptr, %"class.std::unordered_map" }
%"struct.tbb::detail::r1::execution_data_ext" = type { %"struct.tbb::detail::d1::execution_data.base", ptr, i64, ptr }
%"struct.tbb::detail::d1::execution_data.base" = type <{ ptr, i16, i16 }>
%"struct.tbb::detail::r1::task_dispatcher::properties" = type { i8, i8, i8 }
%"class.std::unordered_map" = type { %"class.std::_Hashtable" }
%"class.std::_Hashtable" = type { ptr, i64, %"struct.std::__detail::_Hash_node_base", i64, %"struct.std::__detail::_Prime_rehash_policy", ptr }
%"struct.std::__detail::_Hash_node_base" = type { ptr }
%"struct.std::__detail::_Prime_rehash_policy" = type { float, i64 }
%"struct.tbb::detail::d0::try_call_proxy" = type { %class.anon.42 }
%class.anon.42 = type { ptr, ptr, ptr, ptr }
%class.anon.43 = type { ptr, ptr }
%"class.tbb::detail::d0::raii_guard.72" = type <{ %class.anon.43, i8, [7 x i8] }>

@_ZN3tbb6detail2r18governor6theTLSE = external global %"class.tbb::detail::r1::basic_tls", align 4

; Function Attrs: noinline noreturn nounwind sspstrong uwtable
define linkonce_odr hidden void @__clang_call_terminate(ptr noundef %0) #11 comdat {
  %2 = call ptr @__cxa_begin_catch(ptr %0) #12
  call void @_ZSt9terminatev() #18
  unreachable
}

; Function Attrs: inlinehint mustprogress nounwind sspstrong uwtable
define internal void @"_ZZN3tbb6detail2r120isolate_within_arenaERNS0_2d113delegate_baseElENK3$_1clEv"(ptr noundef nonnull align 8 dereferenceable(16) %0) #6 align 2 {
  %2 = alloca ptr, align 8
  store ptr %0, ptr %2, align 8, !tbaa !10
  %3 = load ptr, ptr %2, align 8
  %4 = getelementptr inbounds nuw %class.anon.43, ptr %3, i32 0, i32 0
  %5 = load ptr, ptr %4, align 8, !tbaa !725
  %6 = load ptr, ptr %5, align 8, !tbaa !130
  %7 = getelementptr inbounds nuw %class.anon.43, ptr %3, i32 0, i32 1
  %8 = load ptr, ptr %7, align 8, !tbaa !726
  %9 = load i64, ptr %8, align 8, !tbaa !99
  %10 = call noundef i64 @_ZN3tbb6detail2r115task_dispatcher13set_isolationEl(ptr noundef nonnull align 128 dereferenceable(128) %6, i64 noundef %9)
  ret void
}

; Function Attrs: mustprogress nounwind sspstrong uwtable
define linkonce_odr noundef i64 @_ZN3tbb6detail2r115task_dispatcher13set_isolationEl(ptr noundef nonnull align 128 dereferenceable(128) %0, i64 noundef %1) #1 comdat align 2 {
  %3 = alloca ptr, align 8
  %4 = alloca i64, align 8
  %5 = alloca i64, align 8
  store ptr %0, ptr %3, align 8, !tbaa !130
  store i64 %1, ptr %4, align 8, !tbaa !99
  %6 = load ptr, ptr %3, align 8
  call void @llvm.lifetime.start.p0(i64 8, ptr %5) #12
  %7 = getelementptr inbounds nuw %"class.tbb::detail::r1::task_dispatcher", ptr %6, i32 0, i32 1
  %8 = getelementptr inbounds nuw %"struct.tbb::detail::r1::execution_data_ext", ptr %7, i32 0, i32 2
  %9 = load i64, ptr %8, align 8, !tbaa !313
  store i64 %9, ptr %5, align 8, !tbaa !99
  %10 = load i64, ptr %4, align 8, !tbaa !99
  %11 = getelementptr inbounds nuw %"class.tbb::detail::r1::task_dispatcher", ptr %6, i32 0, i32 1
  %12 = getelementptr inbounds nuw %"struct.tbb::detail::r1::execution_data_ext", ptr %11, i32 0, i32 2
  store i64 %10, ptr %12, align 8, !tbaa !313
  %13 = load i64, ptr %5, align 8, !tbaa !99
  call void @llvm.lifetime.end.p0(i64 8, ptr %5) #12
  ret i64 %13
}

; Function Attrs: mustprogress nounwind sspstrong uwtable
define internal void @"_ZN3tbb6detail2d010raii_guardIZNS0_2r120isolate_within_arenaERNS0_2d113delegate_baseElE3$_1EC2ES7_"(ptr noundef nonnull align 8 dereferenceable(17) %0, ptr %1, ptr %2) unnamed_addr #1 align 2 {
  %4 = alloca %class.anon.43, align 8
  %5 = alloca ptr, align 8
  %6 = getelementptr inbounds nuw { ptr, ptr }, ptr %4, i32 0, i32 0
  store ptr %1, ptr %6, align 8
  %7 = getelementptr inbounds nuw { ptr, ptr }, ptr %4, i32 0, i32 1
  store ptr %2, ptr %7, align 8
  store ptr %0, ptr %5, align 8, !tbaa !720
  %8 = load ptr, ptr %5, align 8
  %9 = getelementptr inbounds nuw %"class.tbb::detail::d0::raii_guard.72", ptr %8, i32 0, i32 0
  call void @llvm.memcpy.p0.p0.i64(ptr align 8 %9, ptr align 8 %4, i64 16, i1 false), !tbaa.struct !318
  %10 = getelementptr inbounds nuw %"class.tbb::detail::d0::raii_guard.72", ptr %8, i32 0, i32 1
  store i8 1, ptr %10, align 8, !tbaa !722
  ret void
}

; Function Attrs: mustprogress nounwind sspstrong uwtable
define linkonce_odr void @_ZN3tbb6detail2d023suppress_unused_warningIJRPNS0_2r115task_dispatcherERPKcEEEvDpOT_(ptr noundef nonnull align 8 dereferenceable(8) %0, ptr noundef nonnull align 8 dereferenceable(8) %1) #1 comdat {
  %3 = alloca ptr, align 8
  %4 = alloca ptr, align 8
  store ptr %0, ptr %3, align 8, !tbaa !314
  store ptr %1, ptr %4, align 8, !tbaa !584
  ret void
}

; Function Attrs: mustprogress nounwind sspstrong uwtable
define linkonce_odr void @_ZN3tbb6detail2d023suppress_unused_warningIJRPNS0_2r111thread_dataERPKcEEEvDpOT_(ptr noundef nonnull align 8 dereferenceable(8) %0, ptr noundef nonnull align 8 dereferenceable(8) %1) #1 comdat {
  %3 = alloca ptr, align 8
  %4 = alloca ptr, align 8
  store ptr %0, ptr %3, align 8, !tbaa !502
  store ptr %1, ptr %4, align 8, !tbaa !584
  ret void
}

; Function Attrs: mustprogress nounwind sspstrong uwtable
define internal void @"_ZN3tbb6detail2d010raii_guardIZNS0_2r120isolate_within_arenaERNS0_2d113delegate_baseElE3$_1ED2Ev"(ptr noundef nonnull align 8 dereferenceable(17) %0) unnamed_addr #1 align 2 personality ptr @__gxx_personality_v0 {
  %2 = alloca ptr, align 8
  store ptr %0, ptr %2, align 8, !tbaa !720
  %3 = load ptr, ptr %2, align 8
  %4 = getelementptr inbounds nuw %"class.tbb::detail::d0::raii_guard.72", ptr %3, i32 0, i32 1
  %5 = load i8, ptr %4, align 8, !tbaa !722, !range !92, !noundef !93
  %6 = trunc i8 %5 to i1
  br i1 %6, label %7, label %10

7:                                                ; preds = %1
  %8 = getelementptr inbounds nuw %"class.tbb::detail::d0::raii_guard.72", ptr %3, i32 0, i32 0
  invoke void @"_ZZN3tbb6detail2r120isolate_within_arenaERNS0_2d113delegate_baseElENK3$_1clEv"(ptr noundef nonnull align 8 dereferenceable(16) %8)
          to label %9 unwind label %11

9:                                                ; preds = %7
  br label %10

10:                                               ; preds = %9, %1
  ret void

11:                                               ; preds = %7
  %12 = landingpad { ptr, i32 }
          catch ptr null
  %13 = extractvalue { ptr, i32 } %12, 0
  call void @__clang_call_terminate(ptr %13) #18
  unreachable
}

; Function Attrs: inlinehint mustprogress sspstrong uwtable
define internal void @"_ZZN3tbb6detail2r120isolate_within_arenaERNS0_2d113delegate_baseElENK3$_0clEv"(ptr noundef nonnull align 8 dereferenceable(32) %0) #7 align 2 {
  %2 = alloca ptr, align 8
  %3 = alloca i64, align 8
  store ptr %0, ptr %2, align 8, !tbaa !10
  %4 = load ptr, ptr %2, align 8
  call void @llvm.lifetime.start.p0(i64 8, ptr %3) #12
  %5 = getelementptr inbounds nuw %class.anon.42, ptr %4, i32 0, i32 0
  %6 = load ptr, ptr %5, align 8, !tbaa !715
  %7 = load i64, ptr %6, align 8, !tbaa !99
  %8 = icmp ne i64 %7, 0
  br i1 %8, label %9, label %13

9:                                                ; preds = %1
  %10 = getelementptr inbounds nuw %class.anon.42, ptr %4, i32 0, i32 0
  %11 = load ptr, ptr %10, align 8, !tbaa !715
  %12 = load i64, ptr %11, align 8, !tbaa !99
  br label %17

13:                                               ; preds = %1
  %14 = getelementptr inbounds nuw %class.anon.42, ptr %4, i32 0, i32 1
  %15 = load ptr, ptr %14, align 8, !tbaa !717
  %16 = ptrtoint ptr %15 to i64
  br label %17

17:                                               ; preds = %13, %9
  %18 = phi i64 [ %12, %9 ], [ %16, %13 ]
  store i64 %18, ptr %3, align 8, !tbaa !99
  %19 = getelementptr inbounds nuw %class.anon.42, ptr %4, i32 0, i32 3
  %20 = load ptr, ptr %19, align 8, !tbaa !718
  %21 = load ptr, ptr %20, align 8, !tbaa !130
  %22 = load i64, ptr %3, align 8, !tbaa !99
  %23 = call noundef i64 @_ZN3tbb6detail2r115task_dispatcher13set_isolationEl(ptr noundef nonnull align 128 dereferenceable(128) %21, i64 noundef %22)
  %24 = getelementptr inbounds nuw %class.anon.42, ptr %4, i32 0, i32 2
  %25 = load ptr, ptr %24, align 8, !tbaa !719
  store i64 %23, ptr %25, align 8, !tbaa !99
  %26 = getelementptr inbounds nuw %class.anon.42, ptr %4, i32 0, i32 1
  %27 = load ptr, ptr %26, align 8, !tbaa !717
  %28 = load ptr, ptr %27, align 8, !tbaa !81
  %29 = getelementptr inbounds ptr, ptr %28, i64 0
  %30 = load ptr, ptr %29, align 8
  %31 = call noundef zeroext i1 %30(ptr noundef nonnull align 8 dereferenceable(8) %27)
  call void @llvm.lifetime.end.p0(i64 8, ptr %3) #12
  ret void
}

; Function Attrs: mustprogress nounwind sspstrong uwtable
define internal void @"_ZN3tbb6detail2d015make_raii_guardIZNS0_2r120isolate_within_arenaERNS0_2d113delegate_baseElE3$_1EENS1_10raii_guardIT_EES9_"(ptr dead_on_unwind noalias writable sret(%"class.tbb::detail::d0::raii_guard.72") align 8 %0, ptr %1, ptr %2) #1 {
  %4 = alloca ptr, align 8
  %5 = alloca %class.anon.43, align 8
  %6 = alloca %class.anon.43, align 8
  store ptr %0, ptr %4, align 8
  %7 = getelementptr inbounds nuw { ptr, ptr }, ptr %5, i32 0, i32 0
  store ptr %1, ptr %7, align 8
  %8 = getelementptr inbounds nuw { ptr, ptr }, ptr %5, i32 0, i32 1
  store ptr %2, ptr %8, align 8
  call void @llvm.memcpy.p0.p0.i64(ptr align 8 %6, ptr align 8 %5, i64 16, i1 false), !tbaa.struct !318
  %9 = getelementptr inbounds nuw { ptr, ptr }, ptr %6, i32 0, i32 0
  %10 = load ptr, ptr %9, align 8
  %11 = getelementptr inbounds nuw { ptr, ptr }, ptr %6, i32 0, i32 1
  %12 = load ptr, ptr %11, align 8
  call void @"_ZN3tbb6detail2d010raii_guardIZNS0_2r120isolate_within_arenaERNS0_2d113delegate_baseElE3$_1EC2ES7_"(ptr noundef nonnull align 8 dereferenceable(17) %0, ptr %10, ptr %12) #12
  ret void
}

; Function Attrs: mustprogress nounwind sspstrong uwtable
define internal void @"_ZN3tbb6detail2d014try_call_proxyIZNS0_2r120isolate_within_arenaERNS0_2d113delegate_baseElE3$_0EC2ES7_"(ptr noundef nonnull align 8 dereferenceable(32) %0, ptr noundef byval(%class.anon.42) align 8 %1) unnamed_addr #1 align 2 {
  %3 = alloca ptr, align 8
  store ptr %0, ptr %3, align 8, !tbaa !316
  %4 = load ptr, ptr %3, align 8
  %5 = getelementptr inbounds nuw %"struct.tbb::detail::d0::try_call_proxy", ptr %4, i32 0, i32 0
  call void @llvm.memcpy.p0.p0.i64(ptr align 8 %5, ptr align 8 %1, i64 32, i1 false), !tbaa.struct !315
  ret void
}

; Function Attrs: mustprogress nounwind sspstrong uwtable
define linkonce_odr void @_ZN3tbb6detail2d023suppress_unused_warningIJbbEEEvDpOT_(ptr noundef nonnull align 1 dereferenceable(1) %0, ptr noundef nonnull align 1 dereferenceable(1) %1) #1 comdat {
  %3 = alloca ptr, align 8
  %4 = alloca ptr, align 8
  store ptr %0, ptr %3, align 8, !tbaa !549
  store ptr %1, ptr %4, align 8, !tbaa !549
  ret void
}

; Function Attrs: mustprogress sspstrong uwtable
define linkonce_odr noundef zeroext i1 @_ZN3tbb6detail2d020assert_pointer_validILm0ENS0_2r115task_dispatcherEEEbPT0_PKc(ptr noundef %0, ptr noundef %1) #2 comdat {
  %3 = alloca ptr, align 8
  %4 = alloca ptr, align 8
  store ptr %0, ptr %3, align 8, !tbaa !130
  store ptr %1, ptr %4, align 8, !tbaa !197
  call void @_ZN3tbb6detail2d023suppress_unused_warningIJRPNS0_2r115task_dispatcherERPKcEEEvDpOT_(ptr noundef nonnull align 8 dereferenceable(8) %3, ptr noundef nonnull align 8 dereferenceable(8) %4)
  ret i1 true
}

; Function Attrs: mustprogress sspstrong uwtable
define linkonce_odr noundef zeroext i1 @_ZN3tbb6detail2d020assert_pointer_validILm0ENS0_2r111thread_dataEEEbPT0_PKc(ptr noundef %0, ptr noundef %1) #2 comdat {
  %3 = alloca ptr, align 8
  %4 = alloca ptr, align 8
  store ptr %0, ptr %3, align 8, !tbaa !3
  store ptr %1, ptr %4, align 8, !tbaa !197
  call void @_ZN3tbb6detail2d023suppress_unused_warningIJRPNS0_2r111thread_dataERPKcEEEvDpOT_(ptr noundef nonnull align 8 dereferenceable(8) %3, ptr noundef nonnull align 8 dereferenceable(8) %4)
  ret i1 true
}

; Function Attrs: mustprogress nounwind sspstrong uwtable
define linkonce_odr noundef ptr @_ZN3tbb6detail2r19basic_tlsIPNS1_11thread_dataEE3getEv(ptr noundef nonnull align 4 dereferenceable(4) %0) #1 comdat align 2 {
  %2 = alloca ptr, align 8
  store ptr %0, ptr %2, align 8, !tbaa !353
  %3 = load ptr, ptr %2, align 8
  %4 = getelementptr inbounds nuw %"class.tbb::detail::r1::basic_tls", ptr %3, i32 0, i32 0
  %5 = load i32, ptr %4, align 4, !tbaa !355
  %6 = call ptr @pthread_getspecific(i32 noundef %5) #12
  ret ptr %6
}

; Function Attrs: mustprogress sspstrong uwtable
define internal void @"_ZN3tbb6detail2d014try_call_proxyIZNS0_2r120isolate_within_arenaERNS0_2d113delegate_baseElE3$_0E13on_completionIZNS3_20isolate_within_arenaES6_lE3$_1EEvT_"(ptr noundef nonnull align 8 dereferenceable(32) %0, ptr %1, ptr %2) #2 align 2 personality ptr @__gxx_personality_v0 {
  %4 = alloca %class.anon.43, align 8
  %5 = alloca ptr, align 8
  %6 = alloca %"class.tbb::detail::d0::raii_guard.72", align 8
  %7 = alloca %class.anon.43, align 8
  %8 = alloca ptr, align 8
  %9 = alloca i32, align 4
  %10 = getelementptr inbounds nuw { ptr, ptr }, ptr %4, i32 0, i32 0
  store ptr %1, ptr %10, align 8
  %11 = getelementptr inbounds nuw { ptr, ptr }, ptr %4, i32 0, i32 1
  store ptr %2, ptr %11, align 8
  store ptr %0, ptr %5, align 8, !tbaa !316
  %12 = load ptr, ptr %5, align 8
  call void @llvm.lifetime.start.p0(i64 24, ptr %6) #12
  call void @llvm.memcpy.p0.p0.i64(ptr align 8 %7, ptr align 8 %4, i64 16, i1 false), !tbaa.struct !318
  %13 = getelementptr inbounds nuw { ptr, ptr }, ptr %7, i32 0, i32 0
  %14 = load ptr, ptr %13, align 8
  %15 = getelementptr inbounds nuw { ptr, ptr }, ptr %7, i32 0, i32 1
  %16 = load ptr, ptr %15, align 8
  call void @"_ZN3tbb6detail2d015make_raii_guardIZNS0_2r120isolate_within_arenaERNS0_2d113delegate_baseElE3$_1EENS1_10raii_guardIT_EES9_"(ptr dead_on_unwind writable sret(%"class.tbb::detail::d0::raii_guard.72") align 8 %6, ptr %14, ptr %16)
  %17 = getelementptr inbounds nuw %"struct.tbb::detail::d0::try_call_proxy", ptr %12, i32 0, i32 0
  invoke void @"_ZZN3tbb6detail2r120isolate_within_arenaERNS0_2d113delegate_baseElENK3$_0clEv"(ptr noundef nonnull align 8 dereferenceable(32) %17)
          to label %18 unwind label %19

18:                                               ; preds = %3
  call void @"_ZN3tbb6detail2d010raii_guardIZNS0_2r120isolate_within_arenaERNS0_2d113delegate_baseElE3$_1ED2Ev"(ptr noundef nonnull align 8 dereferenceable(17) %6) #12
  call void @llvm.lifetime.end.p0(i64 24, ptr %6) #12
  ret void

19:                                               ; preds = %3
  %20 = landingpad { ptr, i32 }
          cleanup
  %21 = extractvalue { ptr, i32 } %20, 0
  store ptr %21, ptr %8, align 8
  %22 = extractvalue { ptr, i32 } %20, 1
  store i32 %22, ptr %9, align 4
  call void @"_ZN3tbb6detail2d010raii_guardIZNS0_2r120isolate_within_arenaERNS0_2d113delegate_baseElE3$_1ED2Ev"(ptr noundef nonnull align 8 dereferenceable(17) %6) #12
  call void @llvm.lifetime.end.p0(i64 24, ptr %6) #12
  br label %23

23:                                               ; preds = %19
  %24 = load ptr, ptr %8, align 8
  %25 = load i32, ptr %9, align 4
  %26 = insertvalue { ptr, i32 } poison, ptr %24, 0
  %27 = insertvalue { ptr, i32 } %26, i32 %25, 1
  resume { ptr, i32 } %27
}

; Function Attrs: mustprogress sspstrong uwtable
define internal void @"_ZN3tbb6detail2d08try_callIZNS0_2r120isolate_within_arenaERNS0_2d113delegate_baseElE3$_0EENS1_14try_call_proxyIT_EES9_"(ptr dead_on_unwind noalias writable sret(%"struct.tbb::detail::d0::try_call_proxy") align 8 %0, ptr noundef byval(%class.anon.42) align 8 %1) #2 {
  %3 = alloca %class.anon.42, align 8
  call void @llvm.memcpy.p0.p0.i64(ptr align 8 %3, ptr align 8 %1, i64 32, i1 false), !tbaa.struct !315
  call void @"_ZN3tbb6detail2d014try_call_proxyIZNS0_2r120isolate_within_arenaERNS0_2d113delegate_baseElE3$_0EC2ES7_"(ptr noundef nonnull align 8 dereferenceable(32) %0, ptr noundef byval(%class.anon.42) align 8 %3)
  ret void
}

; Function Attrs: mustprogress sspstrong uwtable
define linkonce_odr void @_ZN3tbb6detail2d021assert_pointers_validIJNS0_2r111thread_dataENS3_15task_dispatcherEEEEvDpPT_(ptr noundef %0, ptr noundef %1) #2 comdat {
  %3 = alloca ptr, align 8
  %4 = alloca ptr, align 8
  %5 = alloca i8, align 1
  %6 = alloca i8, align 1
  store ptr %0, ptr %3, align 8, !tbaa !3
  store ptr %1, ptr %4, align 8, !tbaa !130
  call void @llvm.lifetime.start.p0(i64 1, ptr %5) #12
  %7 = load ptr, ptr %3, align 8, !tbaa !3
  %8 = call noundef zeroext i1 @_ZN3tbb6detail2d020assert_pointer_validILm0ENS0_2r111thread_dataEEEbPT0_PKc(ptr noundef %7, ptr noundef null)
  %9 = zext i1 %8 to i8
  store i8 %9, ptr %5, align 1, !tbaa !91
  call void @llvm.lifetime.start.p0(i64 1, ptr %6) #12
  %10 = load ptr, ptr %4, align 8, !tbaa !130
  %11 = call noundef zeroext i1 @_ZN3tbb6detail2d020assert_pointer_validILm0ENS0_2r115task_dispatcherEEEbPT0_PKc(ptr noundef %10, ptr noundef null)
  %12 = zext i1 %11 to i8
  store i8 %12, ptr %6, align 1, !tbaa !91
  call void @_ZN3tbb6detail2d023suppress_unused_warningIJbbEEEvDpOT_(ptr noundef nonnull align 1 dereferenceable(1) %5, ptr noundef nonnull align 1 dereferenceable(1) %6)
  call void @llvm.lifetime.end.p0(i64 1, ptr %6) #12
  call void @llvm.lifetime.end.p0(i64 1, ptr %5) #12
  ret void
}

; Function Attrs: mustprogress sspstrong uwtable
define linkonce_odr noundef ptr @_ZN3tbb6detail2r18governor15get_thread_dataEv() #2 comdat align 2 {
  %1 = alloca ptr, align 8
  %2 = alloca ptr, align 8
  %3 = alloca i32, align 4
  call void @llvm.lifetime.start.p0(i64 8, ptr %2) #12
  %4 = call noundef ptr @_ZN3tbb6detail2r19basic_tlsIPNS1_11thread_dataEE3getEv(ptr noundef nonnull align 4 dereferenceable(4) @_ZN3tbb6detail2r18governor6theTLSE)
  store ptr %4, ptr %2, align 8, !tbaa !3
  %5 = load ptr, ptr %2, align 8, !tbaa !3
  %6 = icmp ne ptr %5, null
  br i1 %6, label %7, label %9

7:                                                ; preds = %0
  %8 = load ptr, ptr %2, align 8, !tbaa !3
  store ptr %8, ptr %1, align 8
  store i32 1, ptr %3, align 4
  br label %12

9:                                                ; preds = %0
  call void @_ZN3tbb6detail2r18governor20init_external_threadEv()
  %10 = call noundef ptr @_ZN3tbb6detail2r19basic_tlsIPNS1_11thread_dataEE3getEv(ptr noundef nonnull align 4 dereferenceable(4) @_ZN3tbb6detail2r18governor6theTLSE)
  store ptr %10, ptr %2, align 8, !tbaa !3
  %11 = load ptr, ptr %2, align 8, !tbaa !3
  store ptr %11, ptr %1, align 8
  store i32 1, ptr %3, align 4
  br label %12

12:                                               ; preds = %9, %7
  call void @llvm.lifetime.end.p0(i64 8, ptr %2) #12
  %13 = load ptr, ptr %1, align 8
  ret ptr %13
}

; Function Attrs: mustprogress sspstrong uwtable
define void @_ZN3tbb6detail2r120isolate_within_arenaERNS0_2d113delegate_baseEl(ptr noundef nonnull align 8 dereferenceable(8) %0, i64 noundef %1) #2 {
  %3 = alloca ptr, align 8
  %4 = alloca i64, align 8
  %5 = alloca ptr, align 8
  %6 = alloca ptr, align 8
  %7 = alloca i64, align 8
  %8 = alloca %"struct.tbb::detail::d0::try_call_proxy", align 8
  %9 = alloca %class.anon.42, align 8
  %10 = alloca %class.anon.43, align 8
  store ptr %0, ptr %3, align 8, !tbaa !249
  store i64 %1, ptr %4, align 8, !tbaa !99
  call void @llvm.lifetime.start.p0(i64 8, ptr %5) #12
  %11 = call noundef ptr @_ZN3tbb6detail2r18governor15get_thread_dataEv()
  store ptr %11, ptr %5, align 8, !tbaa !3
  %12 = load ptr, ptr %5, align 8, !tbaa !3
  %13 = load ptr, ptr %5, align 8, !tbaa !3
  %14 = getelementptr inbounds nuw %"class.tbb::detail::r1::thread_data", ptr %13, i32 0, i32 4
  %15 = load ptr, ptr %14, align 8, !tbaa !132
  call void @_ZN3tbb6detail2d021assert_pointers_validIJNS0_2r111thread_dataENS3_15task_dispatcherEEEEvDpPT_(ptr noundef %12, ptr noundef %15)
  call void @llvm.lifetime.start.p0(i64 8, ptr %6) #12
  %16 = load ptr, ptr %5, align 8, !tbaa !3
  %17 = getelementptr inbounds nuw %"class.tbb::detail::r1::thread_data", ptr %16, i32 0, i32 4
  %18 = load ptr, ptr %17, align 8, !tbaa !132
  store ptr %18, ptr %6, align 8, !tbaa !130
  call void @llvm.lifetime.start.p0(i64 8, ptr %7) #12
  %19 = load ptr, ptr %6, align 8, !tbaa !130
  %20 = getelementptr inbounds nuw %"class.tbb::detail::r1::task_dispatcher", ptr %19, i32 0, i32 1
  %21 = getelementptr inbounds nuw %"struct.tbb::detail::r1::execution_data_ext", ptr %20, i32 0, i32 2
  %22 = load i64, ptr %21, align 8, !tbaa !313
  store i64 %22, ptr %7, align 8, !tbaa !99
  call void @llvm.lifetime.start.p0(i64 32, ptr %8) #12
  %23 = getelementptr inbounds nuw %class.anon.42, ptr %9, i32 0, i32 0
  store ptr %4, ptr %23, align 8, !tbaa !230
  %24 = getelementptr inbounds nuw %class.anon.42, ptr %9, i32 0, i32 1
  %25 = load ptr, ptr %3, align 8, !tbaa !249
  store ptr %25, ptr %24, align 8, !tbaa !249
  %26 = getelementptr inbounds nuw %class.anon.42, ptr %9, i32 0, i32 2
  store ptr %7, ptr %26, align 8, !tbaa !230
  %27 = getelementptr inbounds nuw %class.anon.42, ptr %9, i32 0, i32 3
  store ptr %6, ptr %27, align 8, !tbaa !314
  call void @"_ZN3tbb6detail2d08try_callIZNS0_2r120isolate_within_arenaERNS0_2d113delegate_baseElE3$_0EENS1_14try_call_proxyIT_EES9_"(ptr dead_on_unwind writable sret(%"struct.tbb::detail::d0::try_call_proxy") align 8 %8, ptr noundef byval(%class.anon.42) align 8 %9)
  %28 = getelementptr inbounds nuw %class.anon.43, ptr %10, i32 0, i32 0
  store ptr %6, ptr %28, align 8, !tbaa !314
  %29 = getelementptr inbounds nuw %class.anon.43, ptr %10, i32 0, i32 1
  store ptr %7, ptr %29, align 8, !tbaa !230
  %30 = getelementptr inbounds nuw { ptr, ptr }, ptr %10, i32 0, i32 0
  %31 = load ptr, ptr %30, align 8
  %32 = getelementptr inbounds nuw { ptr, ptr }, ptr %10, i32 0, i32 1
  %33 = load ptr, ptr %32, align 8
  call void @"_ZN3tbb6detail2d014try_call_proxyIZNS0_2r120isolate_within_arenaERNS0_2d113delegate_baseElE3$_0E13on_completionIZNS3_20isolate_within_arenaES6_lE3$_1EEvT_"(ptr noundef nonnull align 8 dereferenceable(32) %8, ptr %31, ptr %33)
  call void @llvm.lifetime.end.p0(i64 32, ptr %8) #12
  call void @llvm.lifetime.end.p0(i64 8, ptr %7) #12
  call void @llvm.lifetime.end.p0(i64 8, ptr %6) #12
  call void @llvm.lifetime.end.p0(i64 8, ptr %5) #12
  ret void
}