; Function Attrs: mustprogress sspstrong uwtable
define void @_ZN3tbb6detail2r120isolate_within_arenaERNS0_2d113delegate_baseEl(ptr noundef nonnull align 8 dereferenceable(8) %0, i64 noundef %1) local_unnamed_addr #1 personality ptr @__gxx_personality_v0 {
  %3 = load i32, ptr @_ZN3tbb6detail2r18governor6theTLSE, align 4, !tbaa !111
  %4 = tail call noundef ptr @pthread_getspecific(i32 noundef %3) #13
  %.not.i = icmp eq ptr %4, null
  br i1 %.not.i, label %5, label %_ZN3tbb6detail2r18governor15get_thread_dataEv.exit

5:                                                ; preds = %2
  tail call void @_ZN3tbb6detail2r18governor20init_external_threadEv()
  %6 = load i32, ptr @_ZN3tbb6detail2r18governor6theTLSE, align 4, !tbaa !111
  %7 = tail call noundef ptr @pthread_getspecific(i32 noundef %6) #13
  br label %_ZN3tbb6detail2r18governor15get_thread_dataEv.exit

_ZN3tbb6detail2r18governor15get_thread_dataEv.exit: ; preds = %2, %5
  %.0.i = phi ptr [ %7, %5 ], [ %4, %2 ]
  %8 = getelementptr inbounds nuw i8, ptr %.0.i, i64 24
  %9 = load ptr, ptr %8, align 8, !tbaa !134
  %10 = getelementptr inbounds nuw i8, ptr %9, i64 32
  %.not.i.i = icmp eq i64 %1, 0
  %11 = ptrtoint ptr %0 to i64
  %12 = select i1 %.not.i.i, i64 %11, i64 %1
  %13 = load i64, ptr %10, align 8, !tbaa !261
  store i64 %12, ptr %10, align 8, !tbaa !261
  %14 = load ptr, ptr %0, align 8, !tbaa !54
  %15 = load ptr, ptr %14, align 8
  %16 = invoke noundef zeroext i1 %15(ptr noundef nonnull align 8 dereferenceable(8) %0)
          to label %"_ZN3tbb6detail2d014try_call_proxyIZNS0_2r120isolate_within_arenaERNS0_2d113delegate_baseElE3$_0E13on_completionIZNS3_20isolate_within_arenaES6_lE3$_1EEvT_.exit" unwind label %"_ZN3tbb6detail2d010raii_guardIZNS0_2r120isolate_within_arenaERNS0_2d113delegate_baseElE3$_1ED2Ev.exit8.i"

"_ZN3tbb6detail2d010raii_guardIZNS0_2r120isolate_within_arenaERNS0_2d113delegate_baseElE3$_1ED2Ev.exit8.i": ; preds = %_ZN3tbb6detail2r18governor15get_thread_dataEv.exit
  %17 = landingpad { ptr, i32 }
          cleanup
  store i64 %13, ptr %10, align 8, !tbaa !261
  resume { ptr, i32 } %17

"_ZN3tbb6detail2d014try_call_proxyIZNS0_2r120isolate_within_arenaERNS0_2d113delegate_baseElE3$_0E13on_completionIZNS3_20isolate_within_arenaES6_lE3$_1EEvT_.exit": ; preds = %_ZN3tbb6detail2r18governor15get_thread_dataEv.exit
  store i64 %13, ptr %10, align 8, !tbaa !261
  ret void
}